; Function Attrs: mustprogress nounwind uwtable
define dso_local void @_ZN5clang14JSONNodeDumper15VisitRecordDeclEPKNS_10RecordDeclE(ptr noundef nonnull align 8 dereferenceable(1312) %0, ptr noundef %1) local_unnamed_addr #0 align 2 {
  %3 = alloca %"class.llvm::json::Value", align 8
  %4 = alloca %"class.llvm::json::Value", align 8
  tail call void @_ZN5clang14JSONNodeDumper14VisitNamedDeclEPKNS_9NamedDeclE(ptr noundef nonnull align 8 dereferenceable(1312) %0, ptr noundef %1)
  %5 = getelementptr inbounds nuw i8, ptr %0, i64 1048
  %6 = getelementptr inbounds i8, ptr %1, i64 72
  %7 = load i16, ptr %6, align 8
  %8 = lshr i16 %7, 13
  %9 = zext nneg i16 %8 to i32
  %10 = tail call noundef i32 @_ZN5clang15TypeWithKeyword24getKeywordForTagTypeKindENS_11TagTypeKindE(i32 noundef %9) #20
  %11 = tail call { ptr, i64 } @_ZN5clang15TypeWithKeyword14getKeywordNameENS_21ElaboratedTypeKeywordE(i32 noundef %10) #20
  %12 = extractvalue { ptr, i64 } %11, 0
  %13 = extractvalue { ptr, i64 } %11, 1
  call void @_ZN4llvm4json5ValueC2ENS_9StringRefE(ptr noundef nonnull align 8 dereferenceable(40) %4, ptr %12, i64 %13)
  call void @_ZN4llvm4json7OStream14attributeBeginENS_9StringRefE(ptr noundef nonnull align 8 dereferenceable(176) %5, ptr nonnull @.str.627, i64 7) #20
  call void @_ZN4llvm4json7OStream5valueERKNS0_5ValueE(ptr noundef nonnull align 8 dereferenceable(176) %5, ptr noundef nonnull align 8 dereferenceable(40) %4) #20
  call void @_ZN4llvm4json7OStream12attributeEndEv(ptr noundef nonnull align 8 dereferenceable(176) %5) #20
  call void @_ZN4llvm4json5Value7destroyEv(ptr noundef nonnull align 8 dereferenceable(40) %4) #20
  %14 = getelementptr inbounds i8, ptr %1, i64 74
  %15 = load i8, ptr %14, align 2
  %16 = and i8 %15, 1
  %.not = icmp eq i8 %16, 0
  call void @llvm.lifetime.start.p0(i64 40, ptr nonnull %3)
  br i1 %.not, label %_ZN5clang14JSONNodeDumper19attributeOnlyIfTrueEN4llvm9StringRefEb.exit, label %17

17:                                               ; preds = %2
  store i16 1, ptr %3, align 8
  %18 = getelementptr inbounds nuw i8, ptr %3, i64 8
  store i8 1, ptr %18, align 8
  call void @_ZN4llvm4json7OStream14attributeBeginENS_9StringRefE(ptr noundef nonnull align 8 dereferenceable(176) %5, ptr nonnull @.str.628, i64 18) #20
  call void @_ZN4llvm4json7OStream5valueERKNS0_5ValueE(ptr noundef nonnull align 8 dereferenceable(176) %5, ptr noundef nonnull align 8 dereferenceable(40) %3) #20
  call void @_ZN4llvm4json7OStream12attributeEndEv(ptr noundef nonnull align 8 dereferenceable(176) %5) #20
  call void @_ZN4llvm4json5Value7destroyEv(ptr noundef nonnull align 8 dereferenceable(40) %3) #20
  br label %_ZN5clang14JSONNodeDumper19attributeOnlyIfTrueEN4llvm9StringRefEb.exit

_ZN5clang14JSONNodeDumper19attributeOnlyIfTrueEN4llvm9StringRefEb.exit: ; preds = %2, %17
  call void @llvm.lifetime.end.p0(i64 40, ptr nonnull %3)
  ret void
}